target datalayout = "e-m:e-p270:32:32-p271:32:32-p272:64:64-i64:64-i128:128-f80:128-n8:16:32:64-S128"
target triple = "x86_64-pc-linux-gnu"

; Function Attrs: nounwind sspstrong uwtable
define internal ptr @make_dummy_encoding(ptr noundef %0) #0 {
  %2 = alloca ptr, align 8
  %3 = alloca ptr, align 8
  %4 = alloca i32, align 4
  store ptr %0, ptr %2, align 8, !tbaa !21
  call void @llvm.lifetime.start.p0(i64 8, ptr %3) #25
  call void @llvm.lifetime.start.p0(i64 4, ptr %4) #25
  %5 = load ptr, ptr %2, align 8, !tbaa !21
  %6 = call i32 @rb_define_dummy_encoding(ptr noundef %5)
  store i32 %6, ptr %4, align 4, !tbaa !29
  %7 = load i32, ptr %4, align 4, !tbaa !29
  %8 = call ptr @rb_enc_from_index(i32 noundef %7)
  store ptr %8, ptr %3, align 8, !tbaa !106
  %9 = load ptr, ptr %3, align 8, !tbaa !106
  call void @llvm.lifetime.end.p0(i64 4, ptr %4) #25
  call void @llvm.lifetime.end.p0(i64 8, ptr %3) #25
  ret ptr %9
}

; Function Attrs: nounwind sspstrong uwtable
define internal ptr @make_encoding(ptr noundef %0) #0 {
  %2 = alloca ptr, align 8
  %3 = alloca ptr, align 8
  store ptr %0, ptr %2, align 8, !tbaa !21
  call void @llvm.lifetime.start.p0(i64 8, ptr %3) #25
  %4 = load ptr, ptr %2, align 8, !tbaa !21
  %5 = call ptr @rb_enc_find(ptr noundef %4)
  store ptr %5, ptr %3, align 8, !tbaa !106
  %6 = load ptr, ptr %3, align 8, !tbaa !106
  %7 = icmp ne ptr %6, null
  br i1 %7, label %11, label %8

8:                                                ; preds = %1
  %9 = load ptr, ptr %2, align 8, !tbaa !21
  %10 = call ptr @make_dummy_encoding(ptr noundef %9)
  store ptr %10, ptr %3, align 8, !tbaa !106
  br label %11

11:                                               ; preds = %8, %1
  %12 = load ptr, ptr %3, align 8, !tbaa !106
  call void @llvm.lifetime.end.p0(i64 8, ptr %3) #25
  ret ptr %12
}

; Function Attrs: nounwind sspstrong uwtable
define internal i64 @make_encobj(ptr noundef %0) #0 {
  %2 = alloca ptr, align 8
  store ptr %0, ptr %2, align 8, !tbaa !21
  %3 = load ptr, ptr %2, align 8, !tbaa !21
  %4 = call ptr @make_encoding(ptr noundef %3)
  %5 = call i64 @rb_enc_from_encoding(ptr noundef %4)
  ret i64 %5
}

; Function Attrs: inlinehint nounwind sspstrong willreturn memory(none) uwtable
define internal zeroext i1 @RB_NIL_P(i64 noundef %0) #10 {
  %2 = alloca i64, align 8
  store i64 %0, ptr %2, align 8, !tbaa !12
  %3 = load i64, ptr %2, align 8, !tbaa !12
  %4 = icmp eq i64 %3, 4
  ret i1 %4
}

; Function Attrs: nounwind sspstrong uwtable
define internal void @search_convpath_i(ptr noundef %0, ptr noundef %1, i32 noundef %2, ptr noundef %3) #0 {
  %5 = alloca ptr, align 8
  %6 = alloca ptr, align 8
  %7 = alloca i32, align 4
  %8 = alloca ptr, align 8
  %9 = alloca ptr, align 8
  %10 = alloca i64, align 8
  store ptr %0, ptr %5, align 8, !tbaa !21
  store ptr %1, ptr %6, align 8, !tbaa !21
  store i32 %2, ptr %7, align 4, !tbaa !29
  store ptr %3, ptr %8, align 8, !tbaa !23
  call void @llvm.lifetime.start.p0(i64 8, ptr %9) #25
  %11 = load ptr, ptr %8, align 8, !tbaa !23
  store ptr %11, ptr %9, align 8, !tbaa !80
  call void @llvm.lifetime.start.p0(i64 8, ptr %10) #25
  %12 = load ptr, ptr %9, align 8, !tbaa !80
  %13 = load i64, ptr %12, align 8, !tbaa !12
  %14 = call zeroext i1 @RB_NIL_P(i64 noundef %13) #31
  br i1 %14, label %15, label %18

15:                                               ; preds = %4
  %16 = call i64 @rb_ary_new()
  %17 = load ptr, ptr %9, align 8, !tbaa !80
  store i64 %16, ptr %17, align 8, !tbaa !12
  br label %18

18:                                               ; preds = %15, %4
  %19 = load ptr, ptr %5, align 8, !tbaa !21
  %20 = load i8, ptr %19, align 1, !tbaa !41
  %21 = sext i8 %20 to i32
  %22 = icmp eq i32 %21, 0
  br i1 %22, label %23, label %26

23:                                               ; preds = %18
  %24 = load ptr, ptr %6, align 8, !tbaa !21
  %25 = call i64 @rb_str_new_cstr(ptr noundef %24)
  store i64 %25, ptr %10, align 8, !tbaa !12
  br label %32

26:                                               ; preds = %18
  %27 = load ptr, ptr %5, align 8, !tbaa !21
  %28 = call i64 @make_encobj(ptr noundef %27)
  %29 = load ptr, ptr %6, align 8, !tbaa !21
  %30 = call i64 @make_encobj(ptr noundef %29)
  %31 = call i64 @rb_assoc_new(i64 noundef %28, i64 noundef %30)
  store i64 %31, ptr %10, align 8, !tbaa !12
  br label %32

32:                                               ; preds = %26, %23
  %33 = load ptr, ptr %9, align 8, !tbaa !80
  %34 = load i64, ptr %33, align 8, !tbaa !12
  %35 = load i32, ptr %7, align 4, !tbaa !29
  %36 = sext i32 %35 to i64
  %37 = load i64, ptr %10, align 8, !tbaa !12
  call void @rb_ary_store(i64 noundef %34, i64 noundef %36, i64 noundef %37)
  call void @llvm.lifetime.end.p0(i64 8, ptr %10) #25
  call void @llvm.lifetime.end.p0(i64 8, ptr %9) #25
  ret void
}