; Function Attrs: nounwind sspstrong uwtable
define internal void @search_convpath_i(ptr noundef %0, ptr noundef %1, i32 noundef %2, ptr noundef captures(none) %3) #0 {
  %5 = load i64, ptr %3, align 8, !tbaa !22
  %6 = icmp eq i64 %5, 4
  br i1 %6, label %7, label %9

7:                                                ; preds = %4
  %8 = tail call i64 @rb_ary_new() #22
  store i64 %8, ptr %3, align 8, !tbaa !22
  br label %9

9:                                                ; preds = %7, %4
  %10 = load i8, ptr %0, align 1, !tbaa !27
  %11 = icmp eq i8 %10, 0
  br i1 %11, label %12, label %14

12:                                               ; preds = %9
  %13 = tail call i64 @rb_str_new_cstr(ptr noundef %1) #22
  br label %26

14:                                               ; preds = %9
  %15 = tail call ptr @rb_enc_find(ptr noundef nonnull %0) #22
  %.not.i.i = icmp eq ptr %15, null
  br i1 %.not.i.i, label %16, label %make_encobj.exit

16:                                               ; preds = %14
  %17 = tail call i32 @rb_define_dummy_encoding(ptr noundef nonnull %0) #22
  %18 = tail call ptr @rb_enc_from_index(i32 noundef %17) #22
  br label %make_encobj.exit

make_encobj.exit:                                 ; preds = %14, %16
  %.0.i.i = phi ptr [ %15, %14 ], [ %18, %16 ]
  %19 = tail call i64 @rb_enc_from_encoding(ptr noundef %.0.i.i) #22
  %20 = tail call ptr @rb_enc_find(ptr noundef %1) #22
  %.not.i.i9 = icmp eq ptr %20, null
  br i1 %.not.i.i9, label %21, label %make_encobj.exit11

21:                                               ; preds = %make_encobj.exit
  %22 = tail call i32 @rb_define_dummy_encoding(ptr noundef %1) #22
  %23 = tail call ptr @rb_enc_from_index(i32 noundef %22) #22
  br label %make_encobj.exit11

make_encobj.exit11:                               ; preds = %make_encobj.exit, %21
  %.0.i.i10 = phi ptr [ %20, %make_encobj.exit ], [ %23, %21 ]
  %24 = tail call i64 @rb_enc_from_encoding(ptr noundef %.0.i.i10) #22
  %25 = tail call i64 @rb_assoc_new(i64 noundef %19, i64 noundef %24) #22
  br label %26

26:                                               ; preds = %make_encobj.exit11, %12
  %.0 = phi i64 [ %13, %12 ], [ %25, %make_encobj.exit11 ]
  %27 = load i64, ptr %3, align 8, !tbaa !22
  %28 = sext i32 %2 to i64
  tail call void @rb_ary_store(i64 noundef %27, i64 noundef %28, i64 noundef %.0) #22
  ret void
}